target datalayout = "e-m:e-p270:32:32-p271:32:32-p272:64:64-i64:64-i128:128-f80:128-n8:16:32:64-S128"
target triple = "x86_64-pc-linux-gnu"

%"class.std::__cxx11::basic_string" = type { %"struct.std::__cxx11::basic_string<char>::_Alloc_hider", i64, %union.anon }
%"struct.std::__cxx11::basic_string<char>::_Alloc_hider" = type { ptr }
%union.anon = type { i64, [8 x i8] }
%"class.cvc5::internal::options::OptionsHandler" = type { ptr }
%"class.cvc5::internal::Options" = type { %"class.std::unique_ptr", %"class.std::unique_ptr.8", %"class.std::unique_ptr.16", %"class.std::unique_ptr.24", %"class.std::unique_ptr.32", %"class.std::unique_ptr.40", %"class.std::unique_ptr.48", %"class.std::unique_ptr.56", %"class.std::unique_ptr.64", %"class.std::unique_ptr.72", %"class.std::unique_ptr.80", %"class.std::unique_ptr.88", %"class.std::unique_ptr.96", %"class.std::unique_ptr.104", %"class.std::unique_ptr.112", %"class.std::unique_ptr.120", %"class.std::unique_ptr.128", %"class.std::unique_ptr.136", %"class.std::unique_ptr.144", %"class.std::unique_ptr.152", %"class.std::unique_ptr.160", %"class.std::unique_ptr.168", %"class.std::unique_ptr.176", %"class.std::unique_ptr.184", %"class.std::unique_ptr.192", ptr, ptr, ptr, ptr, ptr, ptr, ptr, ptr, ptr, ptr, ptr, ptr, ptr, ptr, ptr, ptr, ptr, ptr, ptr, ptr, ptr, ptr, ptr, ptr, ptr, %"class.std::unique_ptr.200" }
%"class.std::unique_ptr" = type { %"struct.std::__uniq_ptr_data" }
%"struct.std::__uniq_ptr_data" = type { %"class.std::__uniq_ptr_impl" }
%"class.std::__uniq_ptr_impl" = type { %"class.std::tuple" }
%"class.std::tuple" = type { %"struct.std::_Tuple_impl" }
%"struct.std::_Tuple_impl" = type { %"struct.std::_Head_base.7" }
%"struct.std::_Head_base.7" = type { ptr }
%"class.std::unique_ptr.8" = type { %"struct.std::__uniq_ptr_data.9" }
%"struct.std::__uniq_ptr_data.9" = type { %"class.std::__uniq_ptr_impl.10" }
%"class.std::__uniq_ptr_impl.10" = type { %"class.std::tuple.11" }
%"class.std::tuple.11" = type { %"struct.std::_Tuple_impl.12" }
%"struct.std::_Tuple_impl.12" = type { %"struct.std::_Head_base.15" }
%"struct.std::_Head_base.15" = type { ptr }
%"class.std::unique_ptr.16" = type { %"struct.std::__uniq_ptr_data.17" }
%"struct.std::__uniq_ptr_data.17" = type { %"class.std::__uniq_ptr_impl.18" }
%"class.std::__uniq_ptr_impl.18" = type { %"class.std::tuple.19" }
%"class.std::tuple.19" = type { %"struct.std::_Tuple_impl.20" }
%"struct.std::_Tuple_impl.20" = type { %"struct.std::_Head_base.23" }
%"struct.std::_Head_base.23" = type { ptr }
%"class.std::unique_ptr.24" = type { %"struct.std::__uniq_ptr_data.25" }
%"struct.std::__uniq_ptr_data.25" = type { %"class.std::__uniq_ptr_impl.26" }
%"class.std::__uniq_ptr_impl.26" = type { %"class.std::tuple.27" }
%"class.std::tuple.27" = type { %"struct.std::_Tuple_impl.28" }
%"struct.std::_Tuple_impl.28" = type { %"struct.std::_Head_base.31" }
%"struct.std::_Head_base.31" = type { ptr }
%"class.std::unique_ptr.32" = type { %"struct.std::__uniq_ptr_data.33" }
%"struct.std::__uniq_ptr_data.33" = type { %"class.std::__uniq_ptr_impl.34" }
%"class.std::__uniq_ptr_impl.34" = type { %"class.std::tuple.35" }
%"class.std::tuple.35" = type { %"struct.std::_Tuple_impl.36" }
%"struct.std::_Tuple_impl.36" = type { %"struct.std::_Head_base.39" }
%"struct.std::_Head_base.39" = type { ptr }
%"class.std::unique_ptr.40" = type { %"struct.std::__uniq_ptr_data.41" }
%"struct.std::__uniq_ptr_data.41" = type { %"class.std::__uniq_ptr_impl.42" }
%"class.std::__uniq_ptr_impl.42" = type { %"class.std::tuple.43" }
%"class.std::tuple.43" = type { %"struct.std::_Tuple_impl.44" }
%"struct.std::_Tuple_impl.44" = type { %"struct.std::_Head_base.47" }
%"struct.std::_Head_base.47" = type { ptr }
%"class.std::unique_ptr.48" = type { %"struct.std::__uniq_ptr_data.49" }
%"struct.std::__uniq_ptr_data.49" = type { %"class.std::__uniq_ptr_impl.50" }
%"class.std::__uniq_ptr_impl.50" = type { %"class.std::tuple.51" }
%"class.std::tuple.51" = type { %"struct.std::_Tuple_impl.52" }
%"struct.std::_Tuple_impl.52" = type { %"struct.std::_Head_base.55" }
%"struct.std::_Head_base.55" = type { ptr }
%"class.std::unique_ptr.56" = type { %"struct.std::__uniq_ptr_data.57" }
%"struct.std::__uniq_ptr_data.57" = type { %"class.std::__uniq_ptr_impl.58" }
%"class.std::__uniq_ptr_impl.58" = type { %"class.std::tuple.59" }
%"class.std::tuple.59" = type { %"struct.std::_Tuple_impl.60" }
%"struct.std::_Tuple_impl.60" = type { %"struct.std::_Head_base.63" }
%"struct.std::_Head_base.63" = type { ptr }
%"class.std::unique_ptr.64" = type { %"struct.std::__uniq_ptr_data.65" }
%"struct.std::__uniq_ptr_data.65" = type { %"class.std::__uniq_ptr_impl.66" }
%"class.std::__uniq_ptr_impl.66" = type { %"class.std::tuple.67" }
%"class.std::tuple.67" = type { %"struct.std::_Tuple_impl.68" }
%"struct.std::_Tuple_impl.68" = type { %"struct.std::_Head_base.71" }
%"struct.std::_Head_base.71" = type { ptr }
%"class.std::unique_ptr.72" = type { %"struct.std::__uniq_ptr_data.73" }
%"struct.std::__uniq_ptr_data.73" = type { %"class.std::__uniq_ptr_impl.74" }
%"class.std::__uniq_ptr_impl.74" = type { %"class.std::tuple.75" }
%"class.std::tuple.75" = type { %"struct.std::_Tuple_impl.76" }
%"struct.std::_Tuple_impl.76" = type { %"struct.std::_Head_base.79" }
%"struct.std::_Head_base.79" = type { ptr }
%"class.std::unique_ptr.80" = type { %"struct.std::__uniq_ptr_data.81" }
%"struct.std::__uniq_ptr_data.81" = type { %"class.std::__uniq_ptr_impl.82" }
%"class.std::__uniq_ptr_impl.82" = type { %"class.std::tuple.83" }
%"class.std::tuple.83" = type { %"struct.std::_Tuple_impl.84" }
%"struct.std::_Tuple_impl.84" = type { %"struct.std::_Head_base.87" }
%"struct.std::_Head_base.87" = type { ptr }
%"class.std::unique_ptr.88" = type { %"struct.std::__uniq_ptr_data.89" }
%"struct.std::__uniq_ptr_data.89" = type { %"class.std::__uniq_ptr_impl.90" }
%"class.std::__uniq_ptr_impl.90" = type { %"class.std::tuple.91" }
%"class.std::tuple.91" = type { %"struct.std::_Tuple_impl.92" }
%"struct.std::_Tuple_impl.92" = type { %"struct.std::_Head_base.95" }
%"struct.std::_Head_base.95" = type { ptr }
%"class.std::unique_ptr.96" = type { %"struct.std::__uniq_ptr_data.97" }
%"struct.std::__uniq_ptr_data.97" = type { %"class.std::__uniq_ptr_impl.98" }
%"class.std::__uniq_ptr_impl.98" = type { %"class.std::tuple.99" }
%"class.std::tuple.99" = type { %"struct.std::_Tuple_impl.100" }
%"struct.std::_Tuple_impl.100" = type { %"struct.std::_Head_base.103" }
%"struct.std::_Head_base.103" = type { ptr }
%"class.std::unique_ptr.104" = type { %"struct.std::__uniq_ptr_data.105" }
%"struct.std::__uniq_ptr_data.105" = type { %"class.std::__uniq_ptr_impl.106" }
%"class.std::__uniq_ptr_impl.106" = type { %"class.std::tuple.107" }
%"class.std::tuple.107" = type { %"struct.std::_Tuple_impl.108" }
%"struct.std::_Tuple_impl.108" = type { %"struct.std::_Head_base.111" }
%"struct.std::_Head_base.111" = type { ptr }
%"class.std::unique_ptr.112" = type { %"struct.std::__uniq_ptr_data.113" }
%"struct.std::__uniq_ptr_data.113" = type { %"class.std::__uniq_ptr_impl.114" }
%"class.std::__uniq_ptr_impl.114" = type { %"class.std::tuple.115" }
%"class.std::tuple.115" = type { %"struct.std::_Tuple_impl.116" }
%"struct.std::_Tuple_impl.116" = type { %"struct.std::_Head_base.119" }
%"struct.std::_Head_base.119" = type { ptr }
%"class.std::unique_ptr.120" = type { %"struct.std::__uniq_ptr_data.121" }
%"struct.std::__uniq_ptr_data.121" = type { %"class.std::__uniq_ptr_impl.122" }
%"class.std::__uniq_ptr_impl.122" = type { %"class.std::tuple.123" }
%"class.std::tuple.123" = type { %"struct.std::_Tuple_impl.124" }
%"struct.std::_Tuple_impl.124" = type { %"struct.std::_Head_base.127" }
%"struct.std::_Head_base.127" = type { ptr }
%"class.std::unique_ptr.128" = type { %"struct.std::__uniq_ptr_data.129" }
%"struct.std::__uniq_ptr_data.129" = type { %"class.std::__uniq_ptr_impl.130" }
%"class.std::__uniq_ptr_impl.130" = type { %"class.std::tuple.131" }
%"class.std::tuple.131" = type { %"struct.std::_Tuple_impl.132" }
%"struct.std::_Tuple_impl.132" = type { %"struct.std::_Head_base.135" }
%"struct.std::_Head_base.135" = type { ptr }
%"class.std::unique_ptr.136" = type { %"struct.std::__uniq_ptr_data.137" }
%"struct.std::__uniq_ptr_data.137" = type { %"class.std::__uniq_ptr_impl.138" }
%"class.std::__uniq_ptr_impl.138" = type { %"class.std::tuple.139" }
%"class.std::tuple.139" = type { %"struct.std::_Tuple_impl.140" }
%"struct.std::_Tuple_impl.140" = type { %"struct.std::_Head_base.143" }
%"struct.std::_Head_base.143" = type { ptr }
%"class.std::unique_ptr.144" = type { %"struct.std::__uniq_ptr_data.145" }
%"struct.std::__uniq_ptr_data.145" = type { %"class.std::__uniq_ptr_impl.146" }
%"class.std::__uniq_ptr_impl.146" = type { %"class.std::tuple.147" }
%"class.std::tuple.147" = type { %"struct.std::_Tuple_impl.148" }
%"struct.std::_Tuple_impl.148" = type { %"struct.std::_Head_base.151" }
%"struct.std::_Head_base.151" = type { ptr }
%"class.std::unique_ptr.152" = type { %"struct.std::__uniq_ptr_data.153" }
%"struct.std::__uniq_ptr_data.153" = type { %"class.std::__uniq_ptr_impl.154" }
%"class.std::__uniq_ptr_impl.154" = type { %"class.std::tuple.155" }
%"class.std::tuple.155" = type { %"struct.std::_Tuple_impl.156" }
%"struct.std::_Tuple_impl.156" = type { %"struct.std::_Head_base.159" }
%"struct.std::_Head_base.159" = type { ptr }
%"class.std::unique_ptr.160" = type { %"struct.std::__uniq_ptr_data.161" }
%"struct.std::__uniq_ptr_data.161" = type { %"class.std::__uniq_ptr_impl.162" }
%"class.std::__uniq_ptr_impl.162" = type { %"class.std::tuple.163" }
%"class.std::tuple.163" = type { %"struct.std::_Tuple_impl.164" }
%"struct.std::_Tuple_impl.164" = type { %"struct.std::_Head_base.167" }
%"struct.std::_Head_base.167" = type { ptr }
%"class.std::unique_ptr.168" = type { %"struct.std::__uniq_ptr_data.169" }
%"struct.std::__uniq_ptr_data.169" = type { %"class.std::__uniq_ptr_impl.170" }
%"class.std::__uniq_ptr_impl.170" = type { %"class.std::tuple.171" }
%"class.std::tuple.171" = type { %"struct.std::_Tuple_impl.172" }
%"struct.std::_Tuple_impl.172" = type { %"struct.std::_Head_base.175" }
%"struct.std::_Head_base.175" = type { ptr }
%"class.std::unique_ptr.176" = type { %"struct.std::__uniq_ptr_data.177" }
%"struct.std::__uniq_ptr_data.177" = type { %"class.std::__uniq_ptr_impl.178" }
%"class.std::__uniq_ptr_impl.178" = type { %"class.std::tuple.179" }
%"class.std::tuple.179" = type { %"struct.std::_Tuple_impl.180" }
%"struct.std::_Tuple_impl.180" = type { %"struct.std::_Head_base.183" }
%"struct.std::_Head_base.183" = type { ptr }
%"class.std::unique_ptr.184" = type { %"struct.std::__uniq_ptr_data.185" }
%"struct.std::__uniq_ptr_data.185" = type { %"class.std::__uniq_ptr_impl.186" }
%"class.std::__uniq_ptr_impl.186" = type { %"class.std::tuple.187" }
%"class.std::tuple.187" = type { %"struct.std::_Tuple_impl.188" }
%"struct.std::_Tuple_impl.188" = type { %"struct.std::_Head_base.191" }
%"struct.std::_Head_base.191" = type { ptr }
%"class.std::unique_ptr.192" = type { %"struct.std::__uniq_ptr_data.193" }
%"struct.std::__uniq_ptr_data.193" = type { %"class.std::__uniq_ptr_impl.194" }
%"class.std::__uniq_ptr_impl.194" = type { %"class.std::tuple.195" }
%"class.std::tuple.195" = type { %"struct.std::_Tuple_impl.196" }
%"struct.std::_Tuple_impl.196" = type { %"struct.std::_Head_base.199" }
%"struct.std::_Head_base.199" = type { ptr }
%"class.std::unique_ptr.200" = type { %"struct.std::__uniq_ptr_data.201" }
%"struct.std::__uniq_ptr_data.201" = type { %"class.std::__uniq_ptr_impl.202" }
%"class.std::__uniq_ptr_impl.202" = type { %"class.std::tuple.203" }
%"class.std::tuple.203" = type { %"struct.std::_Tuple_impl.204" }
%"struct.std::_Tuple_impl.204" = type { %"struct.std::_Head_base.207" }
%"struct.std::_Head_base.207" = type { ptr }
%"struct.cvc5::internal::options::HolderPARSER" = type <{ i8, i8, [6 x i8], %"class.std::__cxx11::basic_string", i8, i8, i8, i8, i8, i8, i8, i8, i8, [3 x i8], i32, i8, i8, i8, i8, i8, i8, i8, i8 }>

; Function Attrs: mustprogress uwtable
define hidden void @_ZN4cvc58internal7options14OptionsHandler13strictParsingERKNSt7__cxx1112basic_stringIcSt11char_traitsIcESaIcEEEb(ptr noundef nonnull align 8 dereferenceable(8) %0, ptr noundef nonnull align 8 dereferenceable(32) %1, i1 noundef zeroext %2) #5 align 2 {
  %4 = alloca ptr, align 8
  %5 = alloca ptr, align 8
  %6 = alloca i8, align 1
  store ptr %0, ptr %4, align 8, !tbaa !3
  store ptr %1, ptr %5, align 8, !tbaa !12
  %7 = zext i1 %2 to i8
  store i8 %7, ptr %6, align 1, !tbaa !238
  %8 = load ptr, ptr %4, align 8
  %9 = load i8, ptr %6, align 1, !tbaa !238, !range !240, !noundef !241
  %10 = trunc i8 %9 to i1
  br i1 %10, label %11, label %16

11:                                               ; preds = %3
  %12 = getelementptr inbounds nuw %"class.cvc5::internal::options::OptionsHandler", ptr %8, i32 0, i32 0
  %13 = load ptr, ptr %12, align 8, !tbaa !10
  %14 = call noundef nonnull align 8 dereferenceable(63) ptr @_ZN4cvc58internal7Options12write_parserEv(ptr noundef nonnull align 8 dereferenceable(408) %13)
  %15 = getelementptr inbounds nuw %"struct.cvc5::internal::options::HolderPARSER", ptr %14, i32 0, i32 14
  store i32 1, ptr %15, align 4, !tbaa !309
  br label %30

16:                                               ; preds = %3
  %17 = getelementptr inbounds nuw %"class.cvc5::internal::options::OptionsHandler", ptr %8, i32 0, i32 0
  %18 = load ptr, ptr %17, align 8, !tbaa !10
  %19 = getelementptr inbounds nuw %"class.cvc5::internal::Options", ptr %18, i32 0, i32 39
  %20 = load ptr, ptr %19, align 8, !tbaa !312
  %21 = getelementptr inbounds nuw %"struct.cvc5::internal::options::HolderPARSER", ptr %20, i32 0, i32 14
  %22 = load i32, ptr %21, align 4, !tbaa !309
  %23 = icmp eq i32 %22, 1
  br i1 %23, label %24, label %29

24:                                               ; preds = %16
  %25 = getelementptr inbounds nuw %"class.cvc5::internal::options::OptionsHandler", ptr %8, i32 0, i32 0
  %26 = load ptr, ptr %25, align 8, !tbaa !10
  %27 = call noundef nonnull align 8 dereferenceable(63) ptr @_ZN4cvc58internal7Options12write_parserEv(ptr noundef nonnull align 8 dereferenceable(408) %26)
  %28 = getelementptr inbounds nuw %"struct.cvc5::internal::options::HolderPARSER", ptr %27, i32 0, i32 14
  store i32 0, ptr %28, align 4, !tbaa !309
  br label %29

29:                                               ; preds = %24, %16
  br label %30

30:                                               ; preds = %29, %11
  ret void
}