; Function Attrs: mustprogress uwtable
define hidden void @_ZN4cvc58internal7options14OptionsHandler13strictParsingERKNSt7__cxx1112basic_stringIcSt11char_traitsIcESaIcEEEb(ptr noundef nonnull readonly align 8 captures(none) dereferenceable(8) %0, ptr noundef nonnull readnone align 8 captures(none) dereferenceable(32) %1, i1 noundef zeroext %2) local_unnamed_addr #5 align 2 {
  %4 = load ptr, ptr %0, align 8, !tbaa !3
  br i1 %2, label %.sink.split, label %5

5:                                                ; preds = %3
  %6 = getelementptr inbounds nuw i8, ptr %4, i64 312
  %7 = load ptr, ptr %6, align 8, !tbaa !320
  %8 = getelementptr inbounds nuw i8, ptr %7, i64 52
  %9 = load i32, ptr %8, align 4, !tbaa !321
  %10 = icmp eq i32 %9, 1
  br i1 %10, label %.sink.split, label %13

.sink.split:                                      ; preds = %5, %3
  %.sink = phi i32 [ 1, %3 ], [ 0, %5 ]
  %11 = tail call noundef nonnull align 8 dereferenceable(63) ptr @_ZN4cvc58internal7Options12write_parserEv(ptr noundef nonnull align 8 dereferenceable(408) %4)
  %12 = getelementptr inbounds nuw i8, ptr %11, i64 52
  store i32 %.sink, ptr %12, align 4, !tbaa !321
  br label %13

13:                                               ; preds = %.sink.split, %5
  ret void
}